; Function Attrs: mustprogress uwtable
define dso_local noundef ptr @_ZN6icu_775Norms7getNormEi(ptr noundef nonnull readonly align 8 captures(none) dereferenceable(424) %0, i32 noundef %1) local_unnamed_addr #2 align 2 {
  %3 = getelementptr inbounds nuw i8, ptr %0, i64 400
  %4 = load ptr, ptr %3, align 8, !tbaa !34
  %5 = tail call i32 @umutablecptrie_get_77(ptr noundef %4, i32 noundef %1)
  %6 = icmp eq i32 %5, 0
  %7 = getelementptr inbounds nuw i8, ptr %0, i64 416
  %8 = load ptr, ptr %7, align 8
  %9 = zext i32 %5 to i64
  %10 = getelementptr inbounds nuw %"struct.icu_77::Norm", ptr %8, i64 %9
  %.0 = select i1 %6, ptr null, ptr %10
  ret ptr %.0
}